target datalayout = "e-m:e-p270:32:32-p271:32:32-p272:64:64-i64:64-i128:128-f80:128-n8:16:32:64-S128"
target triple = "x86_64-pc-linux-gnu"

%struct.passwd = type { ptr, ptr, i32, i32, ptr, ptr, ptr }
%struct.getpwuid_r_args = type { i32, ptr, i64, ptr, %struct.passwd }

; Function Attrs: nounwind sspstrong uwtable
define internal ptr @nogvl_getpwuid_r(ptr noundef %0) #0 {
  %2 = alloca ptr, align 8
  %3 = alloca ptr, align 8
  store ptr %0, ptr %2, align 8, !tbaa !62
  call void @llvm.lifetime.start.p0(i64 8, ptr %3) #27
  %4 = load ptr, ptr %2, align 8, !tbaa !62
  store ptr %4, ptr %3, align 8, !tbaa !176
  %5 = load ptr, ptr %3, align 8, !tbaa !176
  %6 = getelementptr inbounds nuw %struct.getpwuid_r_args, ptr %5, i32 0, i32 0
  %7 = load i32, ptr %6, align 8, !tbaa !170
  %8 = load ptr, ptr %3, align 8, !tbaa !176
  %9 = getelementptr inbounds nuw %struct.getpwuid_r_args, ptr %8, i32 0, i32 4
  %10 = load ptr, ptr %3, align 8, !tbaa !176
  %11 = getelementptr inbounds nuw %struct.getpwuid_r_args, ptr %10, i32 0, i32 1
  %12 = load ptr, ptr %11, align 8, !tbaa !172
  %13 = load ptr, ptr %3, align 8, !tbaa !176
  %14 = getelementptr inbounds nuw %struct.getpwuid_r_args, ptr %13, i32 0, i32 2
  %15 = load i64, ptr %14, align 8, !tbaa !173
  %16 = load ptr, ptr %3, align 8, !tbaa !176
  %17 = getelementptr inbounds nuw %struct.getpwuid_r_args, ptr %16, i32 0, i32 3
  %18 = call i32 @getpwuid_r(i32 noundef %7, ptr noundef %9, ptr noundef %12, i64 noundef %15, ptr noundef %17)
  %19 = sext i32 %18 to i64
  %20 = inttoptr i64 %19 to ptr
  call void @llvm.lifetime.end.p0(i64 8, ptr %3) #27
  ret ptr %20
}